; ModuleID = '9/1251.c'
source_filename = "9/1251.c"
target datalayout = "e-m:e-p270:32:32-p271:32:32-p272:64:64-i64:64-f80:128-n8:16:32:64-S128"
target triple = "x86_64-pc-linux-gnu"

%struct.student = type { [10 x i8], i32 }

@.str = private unnamed_addr constant [3 x i8] c"%d\00", align 1
@.str.1 = private unnamed_addr constant [3 x i8] c"%s\00", align 1
@.str.2 = private unnamed_addr constant [4 x i8] c"%s\0A\00", align 1

; Function Attrs: noinline nounwind uwtable
define dso_local void @main(i32 %0, i8** %1) #0 {
  %3 = alloca i32, align 4
  %4 = alloca i8**, align 8
  %5 = alloca [100 x %struct.student], align 16
  %6 = alloca [100 x %struct.student], align 16
  %7 = alloca [100 x i32], align 16
  %8 = alloca [100 x i32], align 16
  %9 = alloca i32, align 4
  %10 = alloca i32, align 4
  %11 = alloca i32, align 4
  %12 = alloca i32, align 4
  %13 = alloca i32, align 4
  %14 = alloca i32, align 4
  store i32 %0, i32* %3, align 4
  store i8** %1, i8*** %4, align 8
  %15 = call i32 (i8*, ...) @__isoc99_scanf(i8* getelementptr inbounds ([3 x i8], [3 x i8]* @.str, i64 0, i64 0), i32* %13)
  store i32 0, i32* %9, align 4
  br label %16

16:                                               ; preds = %31, %2
  %17 = load i32, i32* %9, align 4
  %18 = load i32, i32* %13, align 4
  %19 = icmp slt i32 %17, %18
  br i1 %19, label %20, label %34

20:                                               ; preds = %16
  %21 = load i32, i32* %9, align 4
  %22 = sext i32 %21 to i64
  %23 = getelementptr inbounds [100 x %struct.student], [100 x %struct.student]* %5, i64 0, i64 %22
  %24 = getelementptr inbounds %struct.student, %struct.student* %23, i32 0, i32 0
  %25 = call i32 (i8*, ...) @__isoc99_scanf(i8* getelementptr inbounds ([3 x i8], [3 x i8]* @.str.1, i64 0, i64 0), [10 x i8]* %24)
  %26 = load i32, i32* %9, align 4
  %27 = sext i32 %26 to i64
  %28 = getelementptr inbounds [100 x %struct.student], [100 x %struct.student]* %5, i64 0, i64 %27
  %29 = getelementptr inbounds %struct.student, %struct.student* %28, i32 0, i32 1
  %30 = call i32 (i8*, ...) @__isoc99_scanf(i8* getelementptr inbounds ([3 x i8], [3 x i8]* @.str, i64 0, i64 0), i32* %29)
  br label %31

31:                                               ; preds = %20
  %32 = load i32, i32* %9, align 4
  %33 = add nsw i32 %32, 1
  store i32 %33, i32* %9, align 4
  br label %16

34:                                               ; preds = %16
  store i32 0, i32* %14, align 4
  store i32 0, i32* %9, align 4
  br label %35

35:                                               ; preds = %62, %34
  %36 = load i32, i32* %9, align 4
  %37 = load i32, i32* %13, align 4
  %38 = icmp slt i32 %36, %37
  br i1 %38, label %39, label %65

39:                                               ; preds = %35
  %40 = load i32, i32* %9, align 4
  %41 = sext i32 %40 to i64
  %42 = getelementptr inbounds [100 x %struct.student], [100 x %struct.student]* %5, i64 0, i64 %41
  %43 = getelementptr inbounds %struct.student, %struct.student* %42, i32 0, i32 1
  %44 = load i32, i32* %43, align 4
  %45 = icmp sge i32 %44, 60
  br i1 %45, label %46, label %61

46:                                               ; preds = %39
  %47 = load i32, i32* %9, align 4
  %48 = sext i32 %47 to i64
  %49 = getelementptr inbounds [100 x %struct.student], [100 x %struct.student]* %5, i64 0, i64 %48
  %50 = getelementptr inbounds %struct.student, %struct.student* %49, i32 0, i32 1
  %51 = load i32, i32* %50, align 4
  %52 = load i32, i32* %14, align 4
  %53 = sext i32 %52 to i64
  %54 = getelementptr inbounds [100 x i32], [100 x i32]* %7, i64 0, i64 %53
  store i32 %51, i32* %54, align 4
  %55 = load i32, i32* %9, align 4
  %56 = load i32, i32* %14, align 4
  %57 = sext i32 %56 to i64
  %58 = getelementptr inbounds [100 x i32], [100 x i32]* %8, i64 0, i64 %57
  store i32 %55, i32* %58, align 4
  %59 = load i32, i32* %14, align 4
  %60 = add nsw i32 %59, 1
  store i32 %60, i32* %14, align 4
  br label %61

61:                                               ; preds = %46, %39
  br label %62

62:                                               ; preds = %61
  %63 = load i32, i32* %9, align 4
  %64 = add nsw i32 %63, 1
  store i32 %64, i32* %9, align 4
  br label %35

65:                                               ; preds = %35
  store i32 0, i32* %9, align 4
  br label %66

66:                                               ; preds = %126, %65
  %67 = load i32, i32* %9, align 4
  %68 = load i32, i32* %14, align 4
  %69 = icmp slt i32 %67, %68
  br i1 %69, label %70, label %129

70:                                               ; preds = %66
  store i32 0, i32* %11, align 4
  br label %71

71:                                               ; preds = %122, %70
  %72 = load i32, i32* %11, align 4
  %73 = load i32, i32* %14, align 4
  %74 = icmp slt i32 %72, %73
  br i1 %74, label %75, label %125

75:                                               ; preds = %71
  %76 = load i32, i32* %11, align 4
  %77 = sext i32 %76 to i64
  %78 = getelementptr inbounds [100 x i32], [100 x i32]* %7, i64 0, i64 %77
  %79 = load i32, i32* %78, align 4
  %80 = load i32, i32* %11, align 4
  %81 = add nsw i32 %80, 1
  %82 = sext i32 %81 to i64
  %83 = getelementptr inbounds [100 x i32], [100 x i32]* %7, i64 0, i64 %82
  %84 = load i32, i32* %83, align 4
  %85 = icmp slt i32 %79, %84
  br i1 %85, label %86, label %121

86:                                               ; preds = %75
  %87 = load i32, i32* %11, align 4
  %88 = sext i32 %87 to i64
  %89 = getelementptr inbounds [100 x i32], [100 x i32]* %7, i64 0, i64 %88
  %90 = load i32, i32* %89, align 4
  store i32 %90, i32* %12, align 4
  %91 = load i32, i32* %11, align 4
  %92 = add nsw i32 %91, 1
  %93 = sext i32 %92 to i64
  %94 = getelementptr inbounds [100 x i32], [100 x i32]* %7, i64 0, i64 %93
  %95 = load i32, i32* %94, align 4
  %96 = load i32, i32* %11, align 4
  %97 = sext i32 %96 to i64
  %98 = getelementptr inbounds [100 x i32], [100 x i32]* %7, i64 0, i64 %97
  store i32 %95, i32* %98, align 4
  %99 = load i32, i32* %12, align 4
  %100 = load i32, i32* %11, align 4
  %101 = add nsw i32 %100, 1
  %102 = sext i32 %101 to i64
  %103 = getelementptr inbounds [100 x i32], [100 x i32]* %7, i64 0, i64 %102
  store i32 %99, i32* %103, align 4
  %104 = load i32, i32* %11, align 4
  %105 = sext i32 %104 to i64
  %106 = getelementptr inbounds [100 x i32], [100 x i32]* %8, i64 0, i64 %105
  %107 = load i32, i32* %106, align 4
  store i32 %107, i32* %12, align 4
  %108 = load i32, i32* %11, align 4
  %109 = add nsw i32 %108, 1
  %110 = sext i32 %109 to i64
  %111 = getelementptr inbounds [100 x i32], [100 x i32]* %8, i64 0, i64 %110
  %112 = load i32, i32* %111, align 4
  %113 = load i32, i32* %11, align 4
  %114 = sext i32 %113 to i64
  %115 = getelementptr inbounds [100 x i32], [100 x i32]* %8, i64 0, i64 %114
  store i32 %112, i32* %115, align 4
  %116 = load i32, i32* %12, align 4
  %117 = load i32, i32* %11, align 4
  %118 = add nsw i32 %117, 1
  %119 = sext i32 %118 to i64
  %120 = getelementptr inbounds [100 x i32], [100 x i32]* %8, i64 0, i64 %119
  store i32 %116, i32* %120, align 4
  br label %121

121:                                              ; preds = %86, %75
  br label %122

122:                                              ; preds = %121
  %123 = load i32, i32* %11, align 4
  %124 = add nsw i32 %123, 1
  store i32 %124, i32* %11, align 4
  br label %71

125:                                              ; preds = %71
  br label %126

126:                                              ; preds = %125
  %127 = load i32, i32* %9, align 4
  %128 = add nsw i32 %127, 1
  store i32 %128, i32* %9, align 4
  br label %66

129:                                              ; preds = %66
  store i32 0, i32* %9, align 4
  br label %130

130:                                              ; preds = %145, %129
  %131 = load i32, i32* %9, align 4
  %132 = load i32, i32* %14, align 4
  %133 = icmp slt i32 %131, %132
  br i1 %133, label %134, label %148

134:                                              ; preds = %130
  %135 = load i32, i32* %9, align 4
  %136 = sext i32 %135 to i64
  %137 = getelementptr inbounds [100 x i32], [100 x i32]* %8, i64 0, i64 %136
  %138 = load i32, i32* %137, align 4
  store i32 %138, i32* %10, align 4
  %139 = load i32, i32* %10, align 4
  %140 = sext i32 %139 to i64
  %141 = getelementptr inbounds [100 x %struct.student], [100 x %struct.student]* %5, i64 0, i64 %140
  %142 = getelementptr inbounds %struct.student, %struct.student* %141, i32 0, i32 0
  %143 = getelementptr inbounds [10 x i8], [10 x i8]* %142, i64 0, i64 0
  %144 = call i32 (i8*, ...) @printf(i8* getelementptr inbounds ([4 x i8], [4 x i8]* @.str.2, i64 0, i64 0), i8* %143)
  br label %145

145:                                              ; preds = %134
  %146 = load i32, i32* %9, align 4
  %147 = add nsw i32 %146, 1
  store i32 %147, i32* %9, align 4
  br label %130

148:                                              ; preds = %130
  store i32 0, i32* %9, align 4
  br label %149

149:                                              ; preds = %168, %148
  %150 = load i32, i32* %9, align 4
  %151 = load i32, i32* %13, align 4
  %152 = icmp slt i32 %150, %151
  br i1 %152, label %153, label %171

153:                                              ; preds = %149
  %154 = load i32, i32* %9, align 4
  %155 = sext i32 %154 to i64
  %156 = getelementptr inbounds [100 x %struct.student], [100 x %struct.student]* %5, i64 0, i64 %155
  %157 = getelementptr inbounds %struct.student, %struct.student* %156, i32 0, i32 1
  %158 = load i32, i32* %157, align 4
  %159 = icmp slt i32 %158, 60
  br i1 %159, label %160, label %167

160:                                              ; preds = %153
  %161 = load i32, i32* %9, align 4
  %162 = sext i32 %161 to i64
  %163 = getelementptr inbounds [100 x %struct.student], [100 x %struct.student]* %5, i64 0, i64 %162
  %164 = getelementptr inbounds %struct.student, %struct.student* %163, i32 0, i32 0
  %165 = getelementptr inbounds [10 x i8], [10 x i8]* %164, i64 0, i64 0
  %166 = call i32 (i8*, ...) @printf(i8* getelementptr inbounds ([4 x i8], [4 x i8]* @.str.2, i64 0, i64 0), i8* %165)
  br label %167

167:                                              ; preds = %160, %153
  br label %168

168:                                              ; preds = %167
  %169 = load i32, i32* %9, align 4
  %170 = add nsw i32 %169, 1
  store i32 %170, i32* %9, align 4
  br label %149

171:                                              ; preds = %149
  ret void
}

declare dso_local i32 @__isoc99_scanf(i8*, ...) #1

declare dso_local i32 @printf(i8*, ...) #1


!llvm.module.flags = !{!0}
!llvm.ident = !{!1}

!0 = !{i32 1, !"wchar_size", i32 4}
!1 = !{!"clang version 10.0.0-4ubuntu1 "}
